; Function Attrs: mustprogress uwtable
define hidden noundef zeroext i1 @_ZNK4cvc58internal6theory5arith6linear18AttemptSolutionSDP15matchesNewValueERKNS0_8DenseMapINS0_13DeltaRationalEEEj(ptr noundef nonnull readonly align 8 captures(none) dereferenceable(328) %0, ptr noundef nonnull readonly align 8 captures(none) dereferenceable(72) %1, i32 noundef %2) local_unnamed_addr #3 align 2 {
  %4 = getelementptr inbounds nuw i8, ptr %1, i64 48
  %5 = zext i32 %2 to i64
  %6 = load ptr, ptr %4, align 8, !tbaa !22
  %7 = getelementptr inbounds nuw %"class.cvc5::internal::DeltaRational", ptr %6, i64 %5
  %8 = getelementptr inbounds nuw i8, ptr %0, i64 128
  %9 = load ptr, ptr %8, align 8, !tbaa !25
  %10 = tail call noundef nonnull align 8 dereferenceable(64) ptr @_ZNK4cvc58internal6theory5arith6linear14ArithVariables13getAssignmentEj(ptr noundef nonnull align 8 dereferenceable(568) %9, i32 noundef %2)
  %11 = getelementptr inbounds nuw i8, ptr %7, i64 32
  %12 = getelementptr inbounds nuw i8, ptr %10, i64 32
  %13 = tail call i32 @__gmpq_equal(ptr noundef nonnull align 8 dereferenceable(32) %11, ptr noundef nonnull align 8 dereferenceable(32) %12) #22
  %.not.i = icmp eq i32 %13, 0
  br i1 %.not.i, label %_ZNK4cvc58internal13DeltaRationaleqERKS1_.exit, label %14

14:                                               ; preds = %3
  %15 = tail call i32 @__gmpq_equal(ptr noundef nonnull align 8 dereferenceable(64) %7, ptr noundef nonnull align 8 dereferenceable(64) %10) #22
  %16 = icmp ne i32 %15, 0
  br label %_ZNK4cvc58internal13DeltaRationaleqERKS1_.exit

_ZNK4cvc58internal13DeltaRationaleqERKS1_.exit:   ; preds = %3, %14
  %17 = phi i1 [ false, %3 ], [ %16, %14 ]
  ret i1 %17
}